; Function Attrs: mustprogress uwtable
define void @_ZN4cvc58internal12SolverEngine9addPluginEPNS0_6PluginE(ptr noundef nonnull readonly align 8 captures(none) dereferenceable(296) %0, ptr noundef %1) local_unnamed_addr #4 align 2 personality ptr @__gxx_personality_v0 {
  %3 = getelementptr inbounds nuw i8, ptr %0, i64 16
  %4 = load ptr, ptr %3, align 8, !tbaa !129
  %5 = tail call noundef zeroext i1 @_ZNK4cvc58internal3smt17SolverEngineState13isFullyInitedEv(ptr noundef nonnull align 8 dereferenceable(108) %4)
  br i1 %5, label %6, label %11

6:                                                ; preds = %2
  %7 = tail call ptr @__cxa_allocate_exception(i64 40) #32
  invoke void @_ZN4cvc58internal14ModalExceptionC2EPKc(ptr noundef nonnull align 8 dereferenceable(40) %7, ptr noundef nonnull @.str.89)
          to label %8 unwind label %9

8:                                                ; preds = %6
  tail call void @__cxa_throw(ptr nonnull %7, ptr nonnull @_ZTIN4cvc58internal14ModalExceptionE, ptr nonnull @_ZN4cvc58internal9ExceptionD2Ev) #34
  unreachable

9:                                                ; preds = %6
  %10 = landingpad { ptr, i32 }
          cleanup
  tail call void @__cxa_free_exception(ptr nonnull %7) #32
  resume { ptr, i32 } %10

11:                                               ; preds = %2
  %12 = getelementptr inbounds nuw i8, ptr %0, i64 8
  %13 = load ptr, ptr %12, align 8, !tbaa !128
  tail call void @_ZN4cvc58internal3Env9addPluginEPNS0_6PluginE(ptr noundef nonnull align 8 dereferenceable(696) %13, ptr noundef %1)
  ret void
}